#include <math.h>
#include <stdio.h>
#include <stdlib.h>
#include <string.h>


int main()
{
  int m,i,j,n,k;
  scanf("%d",&m);
  for(i=3;i<=m/2;i++)
  {   
	 n=0,k=0;
	  for(j=2;j<i;j++)
     {  if(i%j==0) break;
       n=j;}
     if(n==(i-1)) 
      { for(j=2;j<(m-i);j++)
       {if((m-i)%j==0) break;
         k=j;}
       }
    if(k==(m-i-1))
      printf("%d %d\n",i,m-i);
  }
 
  return 0;
  }